target datalayout = "e-m:e-p270:32:32-p271:32:32-p272:64:64-i64:64-i128:128-f80:128-n8:16:32:64-S128"
target triple = "x86_64-pc-linux-gnu"

@iax2_handle = internal global ptr null, align 8
@.str.321 = private unnamed_addr constant [16 x i8] c"iax2.dataformat\00", align 1
@.str.323 = private unnamed_addr constant [9 x i8] c"udp.port\00", align 1
@.str.324 = private unnamed_addr constant [5 x i8] c"v110\00", align 1

; Function Attrs: null_pointer_is_valid sspstrong uwtable
define hidden void @proto_reg_handoff_iax2() #0 {
  %1 = alloca ptr, align 8
  call void @llvm.lifetime.start.p0(i64 8, ptr %1) #14
  %2 = load ptr, ptr @iax2_handle, align 8
  call void @dissector_add_uint_with_preference(ptr noundef @.str.323, i32 noundef 4569, ptr noundef %2)
  %3 = call ptr @find_dissector(ptr noundef @.str.324)
  store ptr %3, ptr %1, align 8
  %4 = load ptr, ptr %1, align 8
  %5 = icmp ne ptr %4, null
  br i1 %5, label %6, label %8

6:                                                ; preds = %0
  %7 = load ptr, ptr %1, align 8
  call void @dissector_add_uint(ptr noundef @.str.321, i32 noundef 1, ptr noundef %7)
  br label %8

8:                                                ; preds = %6, %0
  call void @llvm.lifetime.end.p0(i64 8, ptr %1) #14
  ret void
}