; Function Attrs: null_pointer_is_valid sspstrong uwtable
define hidden void @proto_reg_handoff_iax2() local_unnamed_addr #0 {
  %1 = load ptr, ptr @iax2_handle, align 8
  tail call void @dissector_add_uint_with_preference(ptr noundef nonnull @.str.323, i32 noundef 4569, ptr noundef %1)
  %2 = tail call ptr @find_dissector(ptr noundef nonnull @.str.324)
  %.not = icmp eq ptr %2, null
  br i1 %.not, label %4, label %3

3:                                                ; preds = %0
  tail call void @dissector_add_uint(ptr noundef nonnull @.str.321, i32 noundef 1, ptr noundef nonnull %2)
  br label %4

4:                                                ; preds = %3, %0
  ret void
}